target datalayout = "e-m:e-p270:32:32-p271:32:32-p272:64:64-i64:64-i128:128-f80:128-n8:16:32:64-S128"
target triple = "x86_64-pc-linux-gnu"

%class.oopDesc = type { %class.markWord, %"union.oopDesc::_metadata" }
%class.markWord = type { i64 }
%"union.oopDesc::_metadata" = type { ptr }

@_ZN9vmClasses8_klassesE = external global [0 x ptr], align 8
@UseCompressedClassPointers = external global i8, align 1
@_ZN23CompressedKlassPointers5_baseE = external global ptr, align 8
@_ZN23CompressedKlassPointers6_shiftE = external global i32, align 4

; Function Attrs: mustprogress nounwind uwtable
define linkonce_odr hidden noundef ptr @_ZN23CompressedKlassPointers31decode_not_null_without_assertsEjPhi(i32 noundef %0, ptr noundef %1, i32 noundef %2) #1 comdat align 2 {
  %4 = alloca i32, align 4
  %5 = alloca ptr, align 8
  %6 = alloca i32, align 4
  store i32 %0, ptr %4, align 4
  store ptr %1, ptr %5, align 8
  store i32 %2, ptr %6, align 4
  %7 = load ptr, ptr %5, align 8
  %8 = ptrtoint ptr %7 to i64
  %9 = load i32, ptr %4, align 4
  %10 = zext i32 %9 to i64
  %11 = load i32, ptr %6, align 4
  %12 = zext i32 %11 to i64
  %13 = shl i64 %10, %12
  %14 = add i64 %8, %13
  %15 = inttoptr i64 %14 to ptr
  ret ptr %15
}

; Function Attrs: mustprogress nounwind uwtable
define linkonce_odr hidden noundef ptr @_ZN9vmClasses11check_klassEP13InstanceKlass(ptr noundef %0) #1 comdat align 2 {
  %2 = alloca ptr, align 8
  store ptr %0, ptr %2, align 8
  %3 = load ptr, ptr %2, align 8
  ret ptr %3
}

; Function Attrs: mustprogress nounwind uwtable
define linkonce_odr hidden noundef ptr @_ZN23CompressedKlassPointers15decode_not_nullEjPhi(i32 noundef %0, ptr noundef %1, i32 noundef %2) #1 comdat align 2 {
  %4 = alloca i32, align 4
  %5 = alloca ptr, align 8
  %6 = alloca i32, align 4
  %7 = alloca ptr, align 8
  store i32 %0, ptr %4, align 4
  store ptr %1, ptr %5, align 8
  store i32 %2, ptr %6, align 4
  %8 = load i32, ptr %4, align 4
  %9 = load ptr, ptr %5, align 8
  %10 = load i32, ptr %6, align 4
  %11 = call noundef ptr @_ZN23CompressedKlassPointers31decode_not_null_without_assertsEjPhi(i32 noundef %8, ptr noundef %9, i32 noundef %10)
  store ptr %11, ptr %7, align 8
  %12 = load ptr, ptr %7, align 8
  ret ptr %12
}

; Function Attrs: mustprogress nounwind uwtable
define linkonce_odr hidden noundef i32 @_ZN23CompressedKlassPointers5shiftEv() #1 comdat align 2 {
  %1 = load i32, ptr @_ZN23CompressedKlassPointers6_shiftE, align 4
  ret i32 %1
}

; Function Attrs: mustprogress nounwind uwtable
define linkonce_odr hidden noundef ptr @_ZN23CompressedKlassPointers4baseEv() #1 comdat align 2 {
  %1 = load ptr, ptr @_ZN23CompressedKlassPointers5_baseE, align 8
  ret ptr %1
}

; Function Attrs: mustprogress nounwind uwtable
define linkonce_odr hidden noundef ptr @_ZN9vmClasses15VMStorage_klassEv() #1 comdat align 2 {
  %1 = load ptr, ptr getelementptr inbounds ([0 x ptr], ptr @_ZN9vmClasses8_klassesE, i64 0, i64 69), align 8
  %2 = call noundef ptr @_ZN9vmClasses11check_klassEP13InstanceKlass(ptr noundef %1)
  ret ptr %2
}

; Function Attrs: mustprogress nounwind uwtable
define linkonce_odr hidden noundef ptr @_ZN23CompressedKlassPointers15decode_not_nullEj(i32 noundef %0) #1 comdat align 2 {
  %2 = alloca i32, align 4
  store i32 %0, ptr %2, align 4
  %3 = load i32, ptr %2, align 4
  %4 = call noundef ptr @_ZN23CompressedKlassPointers4baseEv()
  %5 = call noundef i32 @_ZN23CompressedKlassPointers5shiftEv()
  %6 = call noundef ptr @_ZN23CompressedKlassPointers15decode_not_nullEjPhi(i32 noundef %3, ptr noundef %4, i32 noundef %5)
  ret ptr %6
}

; Function Attrs: mustprogress nounwind uwtable
define linkonce_odr hidden noundef zeroext i1 @_ZN34jdk_internal_foreign_abi_VMStorage11is_subclassEP5Klass(ptr noundef %0) #1 comdat align 2 {
  %2 = alloca ptr, align 8
  store ptr %0, ptr %2, align 8
  %3 = call noundef ptr @_ZN9vmClasses15VMStorage_klassEv()
  %4 = icmp ne ptr %3, null
  br i1 %4, label %5, label %9

5:                                                ; preds = %1
  %6 = load ptr, ptr %2, align 8
  %7 = call noundef ptr @_ZN9vmClasses15VMStorage_klassEv()
  %8 = call noundef zeroext i1 @_ZNK5Klass14is_subclass_ofEPKS_(ptr noundef nonnull align 8 dereferenceable(196) %6, ptr noundef %7)
  br label %9

9:                                                ; preds = %5, %1
  %10 = phi i1 [ false, %1 ], [ %8, %5 ]
  ret i1 %10
}

; Function Attrs: mustprogress nounwind uwtable
define linkonce_odr hidden noundef ptr @_ZNK7oopDesc5klassEv(ptr noundef nonnull align 8 dereferenceable(16) %0) #1 comdat align 2 {
  %2 = alloca ptr, align 8
  %3 = alloca ptr, align 8
  store ptr %0, ptr %3, align 8
  %4 = load ptr, ptr %3, align 8
  %5 = load i8, ptr @UseCompressedClassPointers, align 1
  %6 = trunc i8 %5 to i1
  br i1 %6, label %7, label %11

7:                                                ; preds = %1
  %8 = getelementptr inbounds %class.oopDesc, ptr %4, i32 0, i32 1
  %9 = load i32, ptr %8, align 8
  %10 = call noundef ptr @_ZN23CompressedKlassPointers15decode_not_nullEj(i32 noundef %9)
  store ptr %10, ptr %2, align 8
  br label %14

11:                                               ; preds = %1
  %12 = getelementptr inbounds %class.oopDesc, ptr %4, i32 0, i32 1
  %13 = load ptr, ptr %12, align 8
  store ptr %13, ptr %2, align 8
  br label %14

14:                                               ; preds = %11, %7
  %15 = load ptr, ptr %2, align 8
  ret ptr %15
}

; Function Attrs: mustprogress nounwind uwtable
define hidden noundef zeroext i1 @_ZN34jdk_internal_foreign_abi_VMStorage11is_instanceEP7oopDesc(ptr noundef %0) #1 align 2 {
  %2 = alloca ptr, align 8
  store ptr %0, ptr %2, align 8
  %3 = load ptr, ptr %2, align 8
  %4 = icmp ne ptr %3, null
  br i1 %4, label %5, label %9

5:                                                ; preds = %1
  %6 = load ptr, ptr %2, align 8
  %7 = call noundef ptr @_ZNK7oopDesc5klassEv(ptr noundef nonnull align 8 dereferenceable(16) %6)
  %8 = call noundef zeroext i1 @_ZN34jdk_internal_foreign_abi_VMStorage11is_subclassEP5Klass(ptr noundef %7)
  br label %9

9:                                                ; preds = %5, %1
  %10 = phi i1 [ false, %1 ], [ %8, %5 ]
  ret i1 %10
}